; Function Attrs: mustprogress nofree nounwind willreturn memory(argmem: read) uwtable
define dso_local i32 @sdscmp(ptr nocapture noundef readonly %s1, ptr nocapture noundef readonly %s2) local_unnamed_addr #17 {
entry:
  %arrayidx.i = getelementptr inbounds i8, ptr %s1, i64 -1
  %0 = load i8, ptr %arrayidx.i, align 1
  %conv.i = zext i8 %0 to i32
  %and.i = and i32 %conv.i, 7
  switch i32 %and.i, label %sdslen.exit [
    i32 0, label %sw.bb.i
    i32 1, label %sw.bb3.i
    i32 2, label %sw.bb5.i
    i32 3, label %sw.bb9.i
    i32 4, label %sw.bb13.i
  ]

sw.bb.i:                                          ; preds = %entry
  %shr.i = lshr i32 %conv.i, 3
  %conv2.i = zext nneg i32 %shr.i to i64
  br label %sdslen.exit

sw.bb3.i:                                         ; preds = %entry
  %add.ptr.i = getelementptr inbounds i8, ptr %s1, i64 -3
  %1 = load i8, ptr %add.ptr.i, align 1
  %conv4.i = zext i8 %1 to i64
  br label %sdslen.exit

sw.bb5.i:                                         ; preds = %entry
  %add.ptr6.i = getelementptr inbounds i8, ptr %s1, i64 -5
  %2 = load i16, ptr %add.ptr6.i, align 1
  %conv8.i = zext i16 %2 to i64
  br label %sdslen.exit

sw.bb9.i:                                         ; preds = %entry
  %add.ptr10.i = getelementptr inbounds i8, ptr %s1, i64 -9
  %3 = load i32, ptr %add.ptr10.i, align 1
  %conv12.i = zext i32 %3 to i64
  br label %sdslen.exit

sw.bb13.i:                                        ; preds = %entry
  %add.ptr14.i = getelementptr inbounds i8, ptr %s1, i64 -17
  %4 = load i64, ptr %add.ptr14.i, align 1
  br label %sdslen.exit

sdslen.exit:                                      ; preds = %entry, %sw.bb.i, %sw.bb3.i, %sw.bb5.i, %sw.bb9.i, %sw.bb13.i
  %retval.0.i = phi i64 [ %4, %sw.bb13.i ], [ %conv12.i, %sw.bb9.i ], [ %conv8.i, %sw.bb5.i ], [ %conv4.i, %sw.bb3.i ], [ %conv2.i, %sw.bb.i ], [ 0, %entry ]
  %arrayidx.i10 = getelementptr inbounds i8, ptr %s2, i64 -1
  %5 = load i8, ptr %arrayidx.i10, align 1
  %conv.i11 = zext i8 %5 to i32
  %and.i12 = and i32 %conv.i11, 7
  switch i32 %and.i12, label %sdslen.exit28 [
    i32 0, label %sw.bb.i25
    i32 1, label %sw.bb3.i22
    i32 2, label %sw.bb5.i19
    i32 3, label %sw.bb9.i16
    i32 4, label %sw.bb13.i13
  ]

sw.bb.i25:                                        ; preds = %sdslen.exit
  %shr.i26 = lshr i32 %conv.i11, 3
  %conv2.i27 = zext nneg i32 %shr.i26 to i64
  br label %sdslen.exit28

sw.bb3.i22:                                       ; preds = %sdslen.exit
  %add.ptr.i23 = getelementptr inbounds i8, ptr %s2, i64 -3
  %6 = load i8, ptr %add.ptr.i23, align 1
  %conv4.i24 = zext i8 %6 to i64
  br label %sdslen.exit28

sw.bb5.i19:                                       ; preds = %sdslen.exit
  %add.ptr6.i20 = getelementptr inbounds i8, ptr %s2, i64 -5
  %7 = load i16, ptr %add.ptr6.i20, align 1
  %conv8.i21 = zext i16 %7 to i64
  br label %sdslen.exit28

sw.bb9.i16:                                       ; preds = %sdslen.exit
  %add.ptr10.i17 = getelementptr inbounds i8, ptr %s2, i64 -9
  %8 = load i32, ptr %add.ptr10.i17, align 1
  %conv12.i18 = zext i32 %8 to i64
  br label %sdslen.exit28

sw.bb13.i13:                                      ; preds = %sdslen.exit
  %add.ptr14.i14 = getelementptr inbounds i8, ptr %s2, i64 -17
  %9 = load i64, ptr %add.ptr14.i14, align 1
  br label %sdslen.exit28

sdslen.exit28:                                    ; preds = %sdslen.exit, %sw.bb.i25, %sw.bb3.i22, %sw.bb5.i19, %sw.bb9.i16, %sw.bb13.i13
  %retval.0.i15 = phi i64 [ %9, %sw.bb13.i13 ], [ %conv12.i18, %sw.bb9.i16 ], [ %conv8.i21, %sw.bb5.i19 ], [ %conv4.i24, %sw.bb3.i22 ], [ %conv2.i27, %sw.bb.i25 ], [ 0, %sdslen.exit ]
  %cond = tail call i64 @llvm.umin.i64(i64 %retval.0.i, i64 %retval.0.i15)
  %call3 = tail call i32 @memcmp(ptr noundef nonnull %s1, ptr noundef nonnull %s2, i64 noundef %cond) #27
  %cmp4 = icmp eq i32 %call3, 0
  %cmp2 = icmp ult i64 %retval.0.i, %retval.0.i15
  %cmp5 = icmp ugt i64 %retval.0.i, %retval.0.i15
  %cond9 = sext i1 %cmp2 to i32
  %cond11 = select i1 %cmp5, i32 1, i32 %cond9
  %retval.0 = select i1 %cmp4, i32 %cond11, i32 %call3
  ret i32 %retval.0
}